(dp0
S'theta'
p1
cnumpy.core.multiarray
_reconstruct
p2
(cnumpy
ndarray
p3
(I0
tp4
S'b'
p5
tp6
Rp7
(I1
(I3
tp8
cnumpy
dtype
p9
(S'f8'
p10
I0
I1
tp11
Rp12
(I3
S'<'
p13
NNNI-1
I-1
I0
tp14
bI00
S'5\x8e\xf7L\t1R\xb9\xb7<d,[{\xc4\xbaHJfh\xfb\x0cF\xba'
p15
tp16
bs.