(dp0
S'theta'
p1
cnumpy.core.multiarray
_reconstruct
p2
(cnumpy
ndarray
p3
(I0
tp4
S'b'
p5
tp6
Rp7
(I1
(I3
tp8
cnumpy
dtype
p9
(S'f8'
p10
I0
I1
tp11
Rp12
(I3
S'<'
p13
NNNI-1
I-1
I0
tp14
bI00
S'\xe3\xcc\xf6H{G&\xbb\xb0\xb4\xed\xa5\xb5(C\xbc\xa3DL\xe4\x9fN3\xbc'
p15
tp16
bs.